target datalayout = "e-m:e-p270:32:32-p271:32:32-p272:64:64-i64:64-i128:128-f80:128-n8:16:32:64-S128"
target triple = "x86_64-pc-linux-gnu"

%"class.datatype::param_size::size" = type <{ ptr, i32, [4 x i8] }>
%"struct.datatype::param_size::offset" = type { %"class.datatype::param_size::size.base", %class.sort_size }
%"class.datatype::param_size::size.base" = type <{ ptr, i32 }>
%class.sort_size = type { i32, i64 }
%"struct.datatype::param_size::times" = type { %"class.datatype::param_size::size.base", ptr, ptr }
%class.vector.57 = type { ptr }

; Function Attrs: mustprogress nounwind uwtable
define linkonce_odr hidden void @_ZN8datatype10param_size4size7inc_refEv(ptr noundef nonnull align 8 dereferenceable(12) %0) #5 comdat align 2 {
  %2 = alloca ptr, align 8
  store ptr %0, ptr %2, align 8, !tbaa !105
  %3 = load ptr, ptr %2, align 8
  %4 = getelementptr inbounds nuw %"class.datatype::param_size::size", ptr %3, i32 0, i32 1
  %5 = load i32, ptr %4, align 8, !tbaa !106
  %6 = add i32 %5, 1
  store i32 %6, ptr %4, align 8, !tbaa !106
  ret void
}

; Function Attrs: inlinehint mustprogress nounwind uwtable
define linkonce_odr hidden void @_ZN8datatype10param_size4sizeC2Ev(ptr noundef nonnull align 8 dereferenceable(12) %0) unnamed_addr #7 comdat align 2 {
  %2 = alloca ptr, align 8
  store ptr %0, ptr %2, align 8, !tbaa !105
  %3 = load ptr, ptr %2, align 8
  store ptr getelementptr inbounds inrange(-16, 32) ({ [6 x ptr] }, ptr @_ZTVN8datatype10param_size4sizeE, i32 0, i32 0, i32 2), ptr %3, align 8, !tbaa !108
  %4 = getelementptr inbounds nuw %"class.datatype::param_size::size", ptr %3, i32 0, i32 1
  store i32 0, ptr %4, align 8, !tbaa !106
  ret void
}

; Function Attrs: mustprogress nounwind uwtable
define linkonce_odr hidden void @_ZN8datatype10param_size5timesC2EPNS0_4sizeES3_(ptr noundef nonnull align 8 dereferenceable(32) %0, ptr noundef %1, ptr noundef %2) unnamed_addr #5 comdat align 2 {
  %4 = alloca ptr, align 8
  %5 = alloca ptr, align 8
  %6 = alloca ptr, align 8
  store ptr %0, ptr %4, align 8, !tbaa !126
  store ptr %1, ptr %5, align 8, !tbaa !105
  store ptr %2, ptr %6, align 8, !tbaa !105
  %7 = load ptr, ptr %4, align 8
  call void @_ZN8datatype10param_size4sizeC2Ev(ptr noundef nonnull align 8 dereferenceable(12) %7) #3
  store ptr getelementptr inbounds inrange(-16, 32) ({ [6 x ptr] }, ptr @_ZTVN8datatype10param_size5timesE, i32 0, i32 0, i32 2), ptr %7, align 8, !tbaa !108
  %8 = getelementptr inbounds nuw %"struct.datatype::param_size::times", ptr %7, i32 0, i32 1
  %9 = load ptr, ptr %5, align 8, !tbaa !105
  store ptr %9, ptr %8, align 8, !tbaa !128
  %10 = getelementptr inbounds nuw %"struct.datatype::param_size::times", ptr %7, i32 0, i32 2
  %11 = load ptr, ptr %6, align 8, !tbaa !105
  store ptr %11, ptr %10, align 8, !tbaa !130
  %12 = load ptr, ptr %5, align 8, !tbaa !105
  call void @_ZN8datatype10param_size4size7inc_refEv(ptr noundef nonnull align 8 dereferenceable(12) %12)
  %13 = load ptr, ptr %6, align 8, !tbaa !105
  call void @_ZN8datatype10param_size4size7inc_refEv(ptr noundef nonnull align 8 dereferenceable(12) %13)
  ret void
}

; Function Attrs: mustprogress nounwind uwtable
define linkonce_odr hidden void @_ZN8datatype10param_size6offsetC2ERK9sort_size(ptr noundef nonnull align 8 dereferenceable(32) %0, ptr noundef nonnull align 8 dereferenceable(16) %1) unnamed_addr #5 comdat align 2 {
  %3 = alloca ptr, align 8
  %4 = alloca ptr, align 8
  store ptr %0, ptr %3, align 8, !tbaa !112
  store ptr %1, ptr %4, align 8, !tbaa !110
  %5 = load ptr, ptr %3, align 8
  call void @_ZN8datatype10param_size4sizeC2Ev(ptr noundef nonnull align 8 dereferenceable(12) %5) #3
  store ptr getelementptr inbounds inrange(-16, 32) ({ [6 x ptr] }, ptr @_ZTVN8datatype10param_size6offsetE, i32 0, i32 0, i32 2), ptr %5, align 8, !tbaa !108
  %6 = getelementptr inbounds nuw %"struct.datatype::param_size::offset", ptr %5, i32 0, i32 1
  %7 = load ptr, ptr %4, align 8, !tbaa !110
  call void @llvm.memcpy.p0.p0.i64(ptr align 8 %6, ptr align 8 %7, i64 16, i1 false), !tbaa.struct !114
  ret void
}

; Function Attrs: mustprogress uwtable
define hidden noundef ptr @_ZN8datatype10param_size4size8mk_timesEPS1_S2_(ptr noundef %0, ptr noundef %1) #4 align 2 {
  %3 = alloca ptr, align 8
  %4 = alloca ptr, align 8
  store ptr %0, ptr %3, align 8, !tbaa !105
  store ptr %1, ptr %4, align 8, !tbaa !105
  %5 = call noalias noundef ptr @_ZN6memory8allocateEm(i64 noundef 32)
  %6 = load ptr, ptr %3, align 8, !tbaa !105
  %7 = load ptr, ptr %4, align 8, !tbaa !105
  call void @_ZN8datatype10param_size5timesC2EPNS0_4sizeES3_(ptr noundef nonnull align 8 dereferenceable(32) %5, ptr noundef %6, ptr noundef %7)
  ret ptr %5
}

; Function Attrs: mustprogress nounwind uwtable
define linkonce_odr hidden noundef nonnull align 8 dereferenceable(8) ptr @_ZN6vectorIPN8datatype10param_size4sizeELb0EjEixEj(ptr noundef nonnull align 8 dereferenceable(8) %0, i32 noundef %1) #5 comdat align 2 {
  %3 = alloca ptr, align 8
  %4 = alloca i32, align 4
  store ptr %0, ptr %3, align 8, !tbaa !134
  store i32 %1, ptr %4, align 4, !tbaa !22
  %5 = load ptr, ptr %3, align 8
  %6 = getelementptr inbounds nuw %class.vector.57, ptr %5, i32 0, i32 0
  %7 = load ptr, ptr %6, align 8, !tbaa !136
  %8 = load i32, ptr %4, align 4, !tbaa !22
  %9 = zext i32 %8 to i64
  %10 = getelementptr inbounds nuw ptr, ptr %7, i64 %9
  ret ptr %10
}

; Function Attrs: mustprogress nounwind uwtable
define linkonce_odr hidden noundef i32 @_ZNK6vectorIPN8datatype10param_size4sizeELb0EjE4sizeEv(ptr noundef nonnull align 8 dereferenceable(8) %0) #5 comdat align 2 {
  %2 = alloca i32, align 4
  %3 = alloca ptr, align 8
  store ptr %0, ptr %3, align 8, !tbaa !134
  %4 = load ptr, ptr %3, align 8
  %5 = getelementptr inbounds nuw %class.vector.57, ptr %4, i32 0, i32 0
  %6 = load ptr, ptr %5, align 8, !tbaa !136
  %7 = icmp eq ptr %6, null
  br i1 %7, label %8, label %9

8:                                                ; preds = %1
  store i32 0, ptr %2, align 4
  br label %14

9:                                                ; preds = %1
  %10 = getelementptr inbounds nuw %class.vector.57, ptr %4, i32 0, i32 0
  %11 = load ptr, ptr %10, align 8, !tbaa !136
  %12 = getelementptr inbounds i32, ptr %11, i64 -1
  %13 = load i32, ptr %12, align 4, !tbaa !22
  store i32 %13, ptr %2, align 4
  br label %14

14:                                               ; preds = %9, %8
  %15 = load i32, ptr %2, align 4
  ret i32 %15
}

; Function Attrs: mustprogress uwtable
define hidden noundef ptr @_ZN8datatype10param_size4size9mk_offsetERK9sort_size(ptr noundef nonnull align 8 dereferenceable(16) %0) #4 align 2 {
  %2 = alloca ptr, align 8
  store ptr %0, ptr %2, align 8, !tbaa !110
  %3 = call noalias noundef ptr @_ZN6memory8allocateEm(i64 noundef 32)
  %4 = load ptr, ptr %2, align 8, !tbaa !110
  call void @_ZN8datatype10param_size6offsetC2ERK9sort_size(ptr noundef nonnull align 8 dereferenceable(32) %3, ptr noundef nonnull align 8 dereferenceable(16) %4)
  ret ptr %3
}

; Function Attrs: mustprogress nounwind uwtable
define linkonce_odr hidden void @_ZN9sort_sizeC2ERKm(ptr noundef nonnull align 8 dereferenceable(16) %0, ptr noundef nonnull align 8 dereferenceable(8) %1) unnamed_addr #5 comdat align 2 {
  %3 = alloca ptr, align 8
  %4 = alloca ptr, align 8
  store ptr %0, ptr %3, align 8, !tbaa !110
  store ptr %1, ptr %4, align 8, !tbaa !139
  %5 = load ptr, ptr %3, align 8
  %6 = getelementptr inbounds nuw %class.sort_size, ptr %5, i32 0, i32 0
  store i32 0, ptr %6, align 8, !tbaa !141
  %7 = getelementptr inbounds nuw %class.sort_size, ptr %5, i32 0, i32 1
  %8 = load ptr, ptr %4, align 8, !tbaa !139
  %9 = load i64, ptr %8, align 8, !tbaa !117
  store i64 %9, ptr %7, align 8, !tbaa !143
  ret void
}

; Function Attrs: mustprogress nounwind uwtable
define linkonce_odr hidden noundef zeroext i1 @_ZNK6vectorIPN8datatype10param_size4sizeELb0EjE5emptyEv(ptr noundef nonnull align 8 dereferenceable(8) %0) #5 comdat align 2 {
  %2 = alloca ptr, align 8
  store ptr %0, ptr %2, align 8, !tbaa !134
  %3 = load ptr, ptr %2, align 8
  %4 = getelementptr inbounds nuw %class.vector.57, ptr %3, i32 0, i32 0
  %5 = load ptr, ptr %4, align 8, !tbaa !136
  %6 = icmp eq ptr %5, null
  br i1 %6, label %13, label %7

7:                                                ; preds = %1
  %8 = getelementptr inbounds nuw %class.vector.57, ptr %3, i32 0, i32 0
  %9 = load ptr, ptr %8, align 8, !tbaa !136
  %10 = getelementptr inbounds i32, ptr %9, i64 -1
  %11 = load i32, ptr %10, align 4, !tbaa !22
  %12 = icmp eq i32 %11, 0
  br label %13

13:                                               ; preds = %7, %1
  %14 = phi i1 [ true, %1 ], [ %12, %7 ]
  ret i1 %14
}

; Function Attrs: mustprogress uwtable
define hidden noundef ptr @_ZN8datatype10param_size4size8mk_timesER10ptr_vectorIS1_E(ptr noundef nonnull align 8 dereferenceable(8) %0) #4 align 2 {
  %2 = alloca ptr, align 8
  %3 = alloca ptr, align 8
  %4 = alloca %class.sort_size, align 8
  %5 = alloca i64, align 8
  %6 = alloca ptr, align 8
  %7 = alloca i32, align 4
  store ptr %0, ptr %3, align 8, !tbaa !131
  %8 = load ptr, ptr %3, align 8, !tbaa !131
  %9 = call noundef zeroext i1 @_ZNK6vectorIPN8datatype10param_size4sizeELb0EjE5emptyEv(ptr noundef nonnull align 8 dereferenceable(8) %8)
  br i1 %9, label %10, label %12

10:                                               ; preds = %1
  call void @llvm.lifetime.start.p0(i64 16, ptr %4) #3
  call void @llvm.lifetime.start.p0(i64 8, ptr %5) #3
  store i64 1, ptr %5, align 8, !tbaa !117
  call void @_ZN9sort_sizeC2ERKm(ptr noundef nonnull align 8 dereferenceable(16) %4, ptr noundef nonnull align 8 dereferenceable(8) %5)
  %11 = call noundef ptr @_ZN8datatype10param_size4size9mk_offsetERK9sort_size(ptr noundef nonnull align 8 dereferenceable(16) %4)
  store ptr %11, ptr %2, align 8
  call void @llvm.lifetime.end.p0(i64 8, ptr %5) #3
  call void @llvm.lifetime.end.p0(i64 16, ptr %4) #3
  br label %42

12:                                               ; preds = %1
  %13 = load ptr, ptr %3, align 8, !tbaa !131
  %14 = call noundef i32 @_ZNK6vectorIPN8datatype10param_size4sizeELb0EjE4sizeEv(ptr noundef nonnull align 8 dereferenceable(8) %13)
  %15 = icmp eq i32 %14, 1
  br i1 %15, label %16, label %20

16:                                               ; preds = %12
  %17 = load ptr, ptr %3, align 8, !tbaa !131
  %18 = call noundef nonnull align 8 dereferenceable(8) ptr @_ZN6vectorIPN8datatype10param_size4sizeELb0EjEixEj(ptr noundef nonnull align 8 dereferenceable(8) %17, i32 noundef 0)
  %19 = load ptr, ptr %18, align 8, !tbaa !105
  store ptr %19, ptr %2, align 8
  br label %42

20:                                               ; preds = %12
  call void @llvm.lifetime.start.p0(i64 8, ptr %6) #3
  %21 = load ptr, ptr %3, align 8, !tbaa !131
  %22 = call noundef nonnull align 8 dereferenceable(8) ptr @_ZN6vectorIPN8datatype10param_size4sizeELb0EjEixEj(ptr noundef nonnull align 8 dereferenceable(8) %21, i32 noundef 0)
  %23 = load ptr, ptr %22, align 8, !tbaa !105
  store ptr %23, ptr %6, align 8, !tbaa !105
  call void @llvm.lifetime.start.p0(i64 4, ptr %7) #3
  store i32 1, ptr %7, align 4, !tbaa !22
  br label %24

24:                                               ; preds = %37, %20
  %25 = load i32, ptr %7, align 4, !tbaa !22
  %26 = load ptr, ptr %3, align 8, !tbaa !131
  %27 = call noundef i32 @_ZNK6vectorIPN8datatype10param_size4sizeELb0EjE4sizeEv(ptr noundef nonnull align 8 dereferenceable(8) %26)
  %28 = icmp ult i32 %25, %27
  br i1 %28, label %30, label %29

29:                                               ; preds = %24
  call void @llvm.lifetime.end.p0(i64 4, ptr %7) #3
  br label %40

30:                                               ; preds = %24
  %31 = load ptr, ptr %6, align 8, !tbaa !105
  %32 = load ptr, ptr %3, align 8, !tbaa !131
  %33 = load i32, ptr %7, align 4, !tbaa !22
  %34 = call noundef nonnull align 8 dereferenceable(8) ptr @_ZN6vectorIPN8datatype10param_size4sizeELb0EjEixEj(ptr noundef nonnull align 8 dereferenceable(8) %32, i32 noundef %33)
  %35 = load ptr, ptr %34, align 8, !tbaa !105
  %36 = call noundef ptr @_ZN8datatype10param_size4size8mk_timesEPS1_S2_(ptr noundef %31, ptr noundef %35)
  store ptr %36, ptr %6, align 8, !tbaa !105
  br label %37

37:                                               ; preds = %30
  %38 = load i32, ptr %7, align 4, !tbaa !22
  %39 = add i32 %38, 1
  store i32 %39, ptr %7, align 4, !tbaa !22
  br label %24, !llvm.loop !133

40:                                               ; preds = %29
  %41 = load ptr, ptr %6, align 8, !tbaa !105
  store ptr %41, ptr %2, align 8
  call void @llvm.lifetime.end.p0(i64 8, ptr %6) #3
  br label %42

42:                                               ; preds = %40, %16, %10
  %43 = load ptr, ptr %2, align 8
  ret ptr %43
}